target datalayout = "e-m:e-p270:32:32-p271:32:32-p272:64:64-i64:64-i128:128-f80:128-n8:16:32:64-S128"
target triple = "x86_64-pc-linux-gnu"

%class.Handle = type { ptr }
%class.instanceHandle = type { %class.Handle }
%class.JavaValue = type { i8, %"union.JavaValue::JavaCallValue" }
%"union.JavaValue::JavaCallValue" = type { double }
%class.JavaCallArguments = type { [9 x i64], [9 x i8], ptr, ptr, i32, i32, i8, %class.Handle }
%class.ThreadShadow = type <{ ptr, ptr, ptr, i32, [4 x i8] }>
%class.Thread = type { %class.ThreadShadow.base, i64, [43 x i64], ptr, ptr, i32, ptr, i64, i64, %class.ThreadLocalAllocBuffer, i64, %class.ThreadHeapSampler, %class.ThreadStatisticalInfo, %class.JfrThreadLocal, ptr, ptr, ptr, ptr, ptr, ptr, i64, i32, i32, ptr, i32, i32, i32, i32, i8, ptr }
%class.ThreadShadow.base = type <{ ptr, ptr, ptr, i32 }>
%class.ThreadLocalAllocBuffer = type <{ ptr, ptr, ptr, ptr, ptr, i64, i64, i64, i64, i32, i32, i32, i32, i64, %class.AdaptiveWeightedAverage, [4 x i8] }>
%class.AdaptiveWeightedAverage = type { float, i32, i32, i8, float }
%class.ThreadHeapSampler = type { i64 }
%class.ThreadStatisticalInfo = type { i64, i64 }
%class.JfrThreadLocal = type <{ ptr, ptr, ptr, ptr, ptr, ptr, ptr, ptr, ptr, ptr, %class.RefCountHandle, i64, i64, i64, i64, i64, i64, i64, i64, i64, i64, i64, i32, i32, i32, i16, i8, i8, i8, i8, i8, [5 x i8] }>
%class.RefCountHandle = type { ptr }
%class.Arena = type { i8, i8, i64, ptr, ptr, ptr, ptr }

@_ZN6Symbol11_vm_symbolsE = external global [0 x ptr], align 8

; Function Attrs: mustprogress nounwind uwtable
define linkonce_odr hidden noundef i64 @_Z13pointer_deltaPVKvS0_m(ptr noundef %0, ptr noundef %1, i64 noundef %2) #1 comdat {
  %4 = alloca ptr, align 8
  %5 = alloca ptr, align 8
  %6 = alloca i64, align 8
  store ptr %0, ptr %4, align 8
  store ptr %1, ptr %5, align 8
  store i64 %2, ptr %6, align 8
  %7 = load ptr, ptr %4, align 8
  %8 = ptrtoint ptr %7 to i64
  %9 = load ptr, ptr %5, align 8
  %10 = ptrtoint ptr %9 to i64
  %11 = sub i64 %8, %10
  %12 = load i64, ptr %6, align 8
  %13 = udiv i64 %11, %12
  ret i64 %13
}

; Function Attrs: mustprogress nounwind uwtable
define linkonce_odr hidden noundef ptr @_ZN5Arena16internal_amallocEmN17AllocFailStrategy13AllocFailEnumE(ptr noundef nonnull align 8 dereferenceable(48) %0, i64 noundef %1, i32 noundef %2) #1 comdat align 2 {
  %4 = alloca ptr, align 8
  %5 = alloca ptr, align 8
  %6 = alloca i64, align 8
  %7 = alloca i32, align 4
  %8 = alloca ptr, align 8
  store ptr %0, ptr %5, align 8
  store i64 %1, ptr %6, align 8
  store i32 %2, ptr %7, align 4
  %9 = load ptr, ptr %5, align 8
  %10 = getelementptr inbounds %class.Arena, ptr %9, i32 0, i32 6
  %11 = load ptr, ptr %10, align 8
  %12 = getelementptr inbounds %class.Arena, ptr %9, i32 0, i32 5
  %13 = load ptr, ptr %12, align 8
  %14 = call noundef i64 @_Z13pointer_deltaPVKvS0_m(ptr noundef %11, ptr noundef %13, i64 noundef 1)
  %15 = load i64, ptr %6, align 8
  %16 = icmp uge i64 %14, %15
  br i1 %16, label %17, label %25

17:                                               ; preds = %3
  %18 = getelementptr inbounds %class.Arena, ptr %9, i32 0, i32 5
  %19 = load ptr, ptr %18, align 8
  store ptr %19, ptr %8, align 8
  %20 = load i64, ptr %6, align 8
  %21 = getelementptr inbounds %class.Arena, ptr %9, i32 0, i32 5
  %22 = load ptr, ptr %21, align 8
  %23 = getelementptr inbounds i8, ptr %22, i64 %20
  store ptr %23, ptr %21, align 8
  %24 = load ptr, ptr %8, align 8
  store ptr %24, ptr %4, align 8
  br label %29

25:                                               ; preds = %3
  %26 = load i64, ptr %6, align 8
  %27 = load i32, ptr %7, align 4
  %28 = call noundef ptr @_ZN5Arena4growEmN17AllocFailStrategy13AllocFailEnumE(ptr noundef nonnull align 8 dereferenceable(48) %9, i64 noundef %26, i32 noundef %27)
  store ptr %28, ptr %4, align 8
  br label %29

29:                                               ; preds = %25, %17
  %30 = load ptr, ptr %4, align 8
  ret ptr %30
}

; Function Attrs: mustprogress nounwind uwtable
define linkonce_odr hidden noundef ptr @_ZNK6Handle9raw_valueEv(ptr noundef nonnull align 8 dereferenceable(8) %0) #1 comdat align 2 {
  %2 = alloca ptr, align 8
  store ptr %0, ptr %2, align 8
  %3 = load ptr, ptr %2, align 8
  %4 = getelementptr inbounds %class.Handle, ptr %3, i32 0, i32 0
  %5 = load ptr, ptr %4, align 8
  ret ptr %5
}

; Function Attrs: mustprogress nounwind uwtable
define linkonce_odr hidden noundef ptr @_ZN10HandleArea20real_allocate_handleEP7oopDesc(ptr noundef nonnull align 8 dereferenceable(56) %0, ptr noundef %1) #1 comdat align 2 {
  %3 = alloca ptr, align 8
  %4 = alloca ptr, align 8
  %5 = alloca ptr, align 8
  store ptr %0, ptr %3, align 8
  store ptr %1, ptr %4, align 8
  %6 = load ptr, ptr %3, align 8
  %7 = call noundef ptr @_ZN5Arena16internal_amallocEmN17AllocFailStrategy13AllocFailEnumE(ptr noundef nonnull align 8 dereferenceable(48) %6, i64 noundef 8, i32 noundef 0)
  store ptr %7, ptr %5, align 8
  %8 = load ptr, ptr %4, align 8
  %9 = load ptr, ptr %5, align 8
  store ptr %8, ptr %9, align 8
  %10 = load ptr, ptr %5, align 8
  ret ptr %10
}

; Function Attrs: mustprogress nounwind uwtable
define linkonce_odr hidden void @_ZN8JNITypes7put_objERK6HandlePlRi(ptr noundef nonnull align 8 dereferenceable(8) %0, ptr noundef %1, ptr noundef nonnull align 4 dereferenceable(4) %2) #1 comdat align 2 {
  %4 = alloca ptr, align 8
  %5 = alloca ptr, align 8
  %6 = alloca ptr, align 8
  store ptr %0, ptr %4, align 8
  store ptr %1, ptr %5, align 8
  store ptr %2, ptr %6, align 8
  %7 = load ptr, ptr %4, align 8
  %8 = call noundef ptr @_ZNK6Handle9raw_valueEv(ptr noundef nonnull align 8 dereferenceable(8) %7)
  %9 = ptrtoint ptr %8 to i64
  %10 = load ptr, ptr %5, align 8
  %11 = load ptr, ptr %6, align 8
  %12 = load i32, ptr %11, align 4
  %13 = add nsw i32 %12, 1
  store i32 %13, ptr %11, align 4
  %14 = sext i32 %12 to i64
  %15 = getelementptr inbounds i64, ptr %10, i64 %14
  store i64 %9, ptr %15, align 8
  ret void
}

; Function Attrs: mustprogress nounwind uwtable
define linkonce_odr hidden noundef ptr @_ZN10HandleArea15allocate_handleEP7oopDesc(ptr noundef nonnull align 8 dereferenceable(56) %0, ptr noundef %1) #1 comdat align 2 {
  %3 = alloca ptr, align 8
  %4 = alloca ptr, align 8
  store ptr %0, ptr %3, align 8
  store ptr %1, ptr %4, align 8
  %5 = load ptr, ptr %3, align 8
  %6 = load ptr, ptr %4, align 8
  %7 = call noundef ptr @_ZN10HandleArea20real_allocate_handleEP7oopDesc(ptr noundef nonnull align 8 dereferenceable(56) %5, ptr noundef %6)
  ret ptr %7
}

; Function Attrs: mustprogress nounwind uwtable
define linkonce_odr hidden noundef ptr @_ZNK6Thread11handle_areaEv(ptr noundef nonnull align 8 dereferenceable(888) %0) #1 comdat align 2 {
  %2 = alloca ptr, align 8
  store ptr %0, ptr %2, align 8
  %3 = load ptr, ptr %2, align 8
  %4 = getelementptr inbounds %class.Thread, ptr %3, i32 0, i32 17
  %5 = load ptr, ptr %4, align 8
  ret ptr %5
}

; Function Attrs: mustprogress nounwind uwtable
define linkonce_odr hidden void @_ZN17JavaCallArguments8push_oopE6Handle(ptr noundef nonnull align 8 dereferenceable(128) %0, ptr %1) #1 comdat align 2 {
  %3 = alloca %class.Handle, align 8
  %4 = alloca ptr, align 8
  %5 = getelementptr inbounds %class.Handle, ptr %3, i32 0, i32 0
  store ptr %1, ptr %5, align 8
  store ptr %0, ptr %4, align 8
  %6 = load ptr, ptr %4, align 8
  %7 = getelementptr inbounds %class.JavaCallArguments, ptr %6, i32 0, i32 3
  %8 = load ptr, ptr %7, align 8
  %9 = getelementptr inbounds %class.JavaCallArguments, ptr %6, i32 0, i32 4
  %10 = load i32, ptr %9, align 8
  %11 = sext i32 %10 to i64
  %12 = getelementptr inbounds i8, ptr %8, i64 %11
  store i8 2, ptr %12, align 1
  %13 = getelementptr inbounds %class.JavaCallArguments, ptr %6, i32 0, i32 2
  %14 = load ptr, ptr %13, align 8
  %15 = getelementptr inbounds %class.JavaCallArguments, ptr %6, i32 0, i32 4
  call void @_ZN8JNITypes7put_objERK6HandlePlRi(ptr noundef nonnull align 8 dereferenceable(8) %3, ptr noundef %14, ptr noundef nonnull align 4 dereferenceable(4) %15)
  ret void
}

; Function Attrs: mustprogress nounwind uwtable
define linkonce_odr hidden void @_ZN17JavaCallArguments10initializeEv(ptr noundef nonnull align 8 dereferenceable(128) %0) #1 comdat align 2 {
  %2 = alloca ptr, align 8
  store ptr %0, ptr %2, align 8
  %3 = load ptr, ptr %2, align 8
  %4 = getelementptr inbounds %class.JavaCallArguments, ptr %3, i32 0, i32 0
  %5 = getelementptr inbounds [9 x i64], ptr %4, i64 0, i64 1
  %6 = getelementptr inbounds %class.JavaCallArguments, ptr %3, i32 0, i32 2
  store ptr %5, ptr %6, align 8
  %7 = getelementptr inbounds %class.JavaCallArguments, ptr %3, i32 0, i32 1
  %8 = getelementptr inbounds [9 x i8], ptr %7, i64 0, i64 1
  %9 = getelementptr inbounds %class.JavaCallArguments, ptr %3, i32 0, i32 3
  store ptr %8, ptr %9, align 8
  %10 = getelementptr inbounds %class.JavaCallArguments, ptr %3, i32 0, i32 5
  store i32 8, ptr %10, align 4
  %11 = getelementptr inbounds %class.JavaCallArguments, ptr %3, i32 0, i32 4
  store i32 0, ptr %11, align 8
  %12 = getelementptr inbounds %class.JavaCallArguments, ptr %3, i32 0, i32 6
  store i8 0, ptr %12, align 8
  ret void
}

; Function Attrs: mustprogress nounwind uwtable
define linkonce_odr hidden void @_ZN6HandleC2EP6ThreadP7oopDesc(ptr noundef nonnull align 8 dereferenceable(8) %0, ptr noundef %1, ptr noundef %2) unnamed_addr #1 comdat align 2 {
  %4 = alloca ptr, align 8
  %5 = alloca ptr, align 8
  %6 = alloca ptr, align 8
  store ptr %0, ptr %4, align 8
  store ptr %1, ptr %5, align 8
  store ptr %2, ptr %6, align 8
  %7 = load ptr, ptr %4, align 8
  %8 = load ptr, ptr %6, align 8
  %9 = icmp eq ptr %8, null
  br i1 %9, label %10, label %12

10:                                               ; preds = %3
  %11 = getelementptr inbounds %class.Handle, ptr %7, i32 0, i32 0
  store ptr null, ptr %11, align 8
  br label %18

12:                                               ; preds = %3
  %13 = load ptr, ptr %5, align 8
  %14 = call noundef ptr @_ZNK6Thread11handle_areaEv(ptr noundef nonnull align 8 dereferenceable(888) %13)
  %15 = load ptr, ptr %6, align 8
  %16 = call noundef ptr @_ZN10HandleArea15allocate_handleEP7oopDesc(ptr noundef nonnull align 8 dereferenceable(56) %14, ptr noundef %15)
  %17 = getelementptr inbounds %class.Handle, ptr %7, i32 0, i32 0
  store ptr %16, ptr %17, align 8
  br label %18

18:                                               ; preds = %12, %10
  ret void
}

; Function Attrs: mustprogress nounwind uwtable
define linkonce_odr hidden noundef ptr @_ZNK9JavaValue7get_oopEv(ptr noundef nonnull align 8 dereferenceable(16) %0) #1 comdat align 2 {
  %2 = alloca ptr, align 8
  store ptr %0, ptr %2, align 8
  %3 = load ptr, ptr %2, align 8
  %4 = getelementptr inbounds %class.JavaValue, ptr %3, i32 0, i32 1
  %5 = load ptr, ptr %4, align 8
  ret ptr %5
}

; Function Attrs: mustprogress nounwind uwtable
define linkonce_odr hidden noundef ptr @_ZN9vmSymbols26getGcInfoBuilder_signatureEv() #1 comdat align 2 {
  %1 = load ptr, ptr getelementptr inbounds ([0 x ptr], ptr @_ZN6Symbol11_vm_symbolsE, i64 0, i64 1085), align 8
  ret ptr %1
}

; Function Attrs: mustprogress nounwind uwtable
define linkonce_odr hidden noundef ptr @_ZN9vmSymbols21getGcInfoBuilder_nameEv() #1 comdat align 2 {
  %1 = load ptr, ptr getelementptr inbounds ([0 x ptr], ptr @_ZN6Symbol11_vm_symbolsE, i64 0, i64 1084), align 8
  ret ptr %1
}

; Function Attrs: mustprogress nounwind uwtable
define linkonce_odr hidden void @_ZN17JavaCallArgumentsC2E6Handle(ptr noundef nonnull align 8 dereferenceable(128) %0, ptr %1) unnamed_addr #1 comdat align 2 {
  %3 = alloca %class.Handle, align 8
  %4 = alloca ptr, align 8
  %5 = alloca %class.Handle, align 8
  %6 = getelementptr inbounds %class.Handle, ptr %3, i32 0, i32 0
  store ptr %1, ptr %6, align 8
  store ptr %0, ptr %4, align 8
  %7 = load ptr, ptr %4, align 8
  %8 = getelementptr inbounds %class.JavaCallArguments, ptr %7, i32 0, i32 7
  call void @_ZN6HandleC2Ev(ptr noundef nonnull align 8 dereferenceable(8) %8)
  call void @_ZN17JavaCallArguments10initializeEv(ptr noundef nonnull align 8 dereferenceable(128) %7)
  call void @llvm.memcpy.p0.p0.i64(ptr align 8 %5, ptr align 8 %3, i64 8, i1 false)
  %9 = getelementptr inbounds %class.Handle, ptr %5, i32 0, i32 0
  %10 = load ptr, ptr %9, align 8
  call void @_ZN17JavaCallArguments8push_oopE6Handle(ptr noundef nonnull align 8 dereferenceable(128) %7, ptr %10)
  ret void
}

; Function Attrs: mustprogress nounwind uwtable
define linkonce_odr hidden void @_ZN9JavaValueC2E9BasicType(ptr noundef nonnull align 8 dereferenceable(16) %0, i8 noundef zeroext %1) unnamed_addr #1 comdat align 2 {
  %3 = alloca ptr, align 8
  %4 = alloca i8, align 1
  store ptr %0, ptr %3, align 8
  store i8 %1, ptr %4, align 1
  %5 = load ptr, ptr %3, align 8
  %6 = load i8, ptr %4, align 1
  %7 = getelementptr inbounds %class.JavaValue, ptr %5, i32 0, i32 0
  store i8 %6, ptr %7, align 8
  ret void
}

; Function Attrs: mustprogress nounwind uwtable
define linkonce_odr hidden void @_ZN14instanceHandleC2EP6ThreadP15instanceOopDesc(ptr noundef nonnull align 8 dereferenceable(8) %0, ptr noundef %1, ptr noundef %2) unnamed_addr #1 comdat align 2 {
  %4 = alloca ptr, align 8
  %5 = alloca ptr, align 8
  %6 = alloca ptr, align 8
  store ptr %0, ptr %4, align 8
  store ptr %1, ptr %5, align 8
  store ptr %2, ptr %6, align 8
  %7 = load ptr, ptr %4, align 8
  %8 = load ptr, ptr %5, align 8
  %9 = load ptr, ptr %6, align 8
  call void @_ZN6HandleC2EP6ThreadP7oopDesc(ptr noundef nonnull align 8 dereferenceable(8) %7, ptr noundef %8, ptr noundef %9)
  ret void
}

; Function Attrs: mustprogress nounwind uwtable
define linkonce_odr hidden void @_ZN6HandleC2Ev(ptr noundef nonnull align 8 dereferenceable(8) %0) unnamed_addr #1 comdat align 2 {
  %2 = alloca ptr, align 8
  store ptr %0, ptr %2, align 8
  %3 = load ptr, ptr %2, align 8
  %4 = getelementptr inbounds %class.Handle, ptr %3, i32 0, i32 0
  store ptr null, ptr %4, align 8
  ret void
}

; Function Attrs: mustprogress nounwind uwtable
define linkonce_odr hidden noundef zeroext i1 @_ZNK12ThreadShadow21has_pending_exceptionEv(ptr noundef nonnull align 8 dereferenceable(28) %0) #1 comdat align 2 {
  %2 = alloca ptr, align 8
  store ptr %0, ptr %2, align 8
  %3 = load ptr, ptr %2, align 8
  %4 = getelementptr inbounds %class.ThreadShadow, ptr %3, i32 0, i32 1
  %5 = load ptr, ptr %4, align 8
  %6 = icmp ne ptr %5, null
  ret i1 %6
}

; Function Attrs: mustprogress nounwind uwtable
define internal ptr @_ZL16getGcInfoBuilderP15GCMemoryManagerP10JavaThread(ptr noundef %0, ptr noundef %1) #1 {
  %3 = alloca %class.Handle, align 8
  %4 = alloca ptr, align 8
  %5 = alloca ptr, align 8
  %6 = alloca ptr, align 8
  %7 = alloca ptr, align 8
  %8 = alloca %class.instanceHandle, align 8
  %9 = alloca %class.JavaValue, align 8
  %10 = alloca %class.JavaCallArguments, align 8
  %11 = alloca %class.Handle, align 8
  store ptr %0, ptr %4, align 8
  store ptr %1, ptr %5, align 8
  %12 = load ptr, ptr %5, align 8
  %13 = call noundef ptr @_ZN10Management57com_sun_management_internal_GarbageCollectorExtImpl_klassEP10JavaThread(ptr noundef %12)
  store ptr %13, ptr %6, align 8
  %14 = load ptr, ptr %5, align 8
  %15 = call noundef zeroext i1 @_ZNK12ThreadShadow21has_pending_exceptionEv(ptr noundef nonnull align 8 dereferenceable(28) %14)
  br i1 %15, label %16, label %17

16:                                               ; preds = %2
  call void @_ZN6HandleC2Ev(ptr noundef nonnull align 8 dereferenceable(8) %3)
  br label %38

17:                                               ; preds = %2
  %18 = load ptr, ptr %4, align 8
  %19 = load ptr, ptr %5, align 8
  %20 = load ptr, ptr %18, align 8
  %21 = getelementptr inbounds ptr, ptr %20, i64 0
  %22 = load ptr, ptr %21, align 8
  %23 = call noundef ptr %22(ptr noundef nonnull align 8 dereferenceable(113) %18, ptr noundef %19)
  store ptr %23, ptr %7, align 8
  %24 = load ptr, ptr %5, align 8
  %25 = load ptr, ptr %7, align 8
  call void @_ZN14instanceHandleC2EP6ThreadP15instanceOopDesc(ptr noundef nonnull align 8 dereferenceable(8) %8, ptr noundef %24, ptr noundef %25)
  call void @_ZN9JavaValueC2E9BasicType(ptr noundef nonnull align 8 dereferenceable(16) %9, i8 noundef zeroext 12)
  call void @llvm.memcpy.p0.p0.i64(ptr align 8 %11, ptr align 8 %8, i64 8, i1 false)
  %26 = getelementptr inbounds %class.Handle, ptr %11, i32 0, i32 0
  %27 = load ptr, ptr %26, align 8
  call void @_ZN17JavaCallArgumentsC2E6Handle(ptr noundef nonnull align 8 dereferenceable(128) %10, ptr %27)
  %28 = load ptr, ptr %6, align 8
  %29 = call noundef ptr @_ZN9vmSymbols21getGcInfoBuilder_nameEv()
  %30 = call noundef ptr @_ZN9vmSymbols26getGcInfoBuilder_signatureEv()
  %31 = load ptr, ptr %5, align 8
  call void @_ZN9JavaCalls12call_virtualEP9JavaValueP5KlassP6SymbolS5_P17JavaCallArgumentsP10JavaThread(ptr noundef %9, ptr noundef %28, ptr noundef %29, ptr noundef %30, ptr noundef %10, ptr noundef %31)
  %32 = load ptr, ptr %5, align 8
  %33 = call noundef zeroext i1 @_ZNK12ThreadShadow21has_pending_exceptionEv(ptr noundef nonnull align 8 dereferenceable(28) %32)
  br i1 %33, label %34, label %35

34:                                               ; preds = %17
  call void @_ZN6HandleC2Ev(ptr noundef nonnull align 8 dereferenceable(8) %3)
  br label %38

35:                                               ; preds = %17
  %36 = load ptr, ptr %5, align 8
  %37 = call noundef ptr @_ZNK9JavaValue7get_oopEv(ptr noundef nonnull align 8 dereferenceable(16) %9)
  call void @_ZN6HandleC2EP6ThreadP7oopDesc(ptr noundef nonnull align 8 dereferenceable(8) %3, ptr noundef %36, ptr noundef %37)
  br label %38

38:                                               ; preds = %35, %34, %16
  %39 = getelementptr inbounds %class.Handle, ptr %3, i32 0, i32 0
  %40 = load ptr, ptr %39, align 8
  ret ptr %40
}