; Function Attrs: mustprogress nounwind uwtable
define internal fastcc noundef ptr @_ZL16getGcInfoBuilderP15GCMemoryManagerP10JavaThread(ptr noundef %0, ptr noundef %1) unnamed_addr #0 {
  %3 = alloca %class.JavaValue, align 8
  %4 = alloca %class.JavaCallArguments, align 8
  %5 = tail call noundef ptr @_ZN10Management57com_sun_management_internal_GarbageCollectorExtImpl_klassEP10JavaThread(ptr noundef %1) #8
  %6 = getelementptr inbounds i8, ptr %1, i64 8
  %7 = load ptr, ptr %6, align 8
  %.not = icmp eq ptr %7, null
  br i1 %.not, label %8, label %_ZN6HandleC2EP6ThreadP7oopDesc.exit

8:                                                ; preds = %2
  %9 = load ptr, ptr %0, align 8
  %10 = load ptr, ptr %9, align 8
  %11 = tail call noundef ptr %10(ptr noundef nonnull align 8 dereferenceable(113) %0, ptr noundef nonnull %1) #8
  %12 = icmp eq ptr %11, null
  br i1 %12, label %_ZN14instanceHandleC2EP6ThreadP15instanceOopDesc.exit, label %13

13:                                               ; preds = %8
  %14 = getelementptr inbounds i8, ptr %1, i64 808
  %15 = load ptr, ptr %14, align 8
  %16 = getelementptr inbounds i8, ptr %15, i64 40
  %17 = load ptr, ptr %16, align 8
  %18 = getelementptr inbounds i8, ptr %15, i64 32
  %19 = load ptr, ptr %18, align 8
  %20 = ptrtoint ptr %17 to i64
  %21 = ptrtoint ptr %19 to i64
  %22 = sub i64 %20, %21
  %.not.i.i.i.i.i = icmp ult i64 %22, 8
  br i1 %.not.i.i.i.i.i, label %25, label %23

23:                                               ; preds = %13
  %24 = getelementptr inbounds i8, ptr %19, i64 8
  store ptr %24, ptr %18, align 8
  br label %_ZN10HandleArea15allocate_handleEP7oopDesc.exit.i.i

25:                                               ; preds = %13
  %26 = tail call noundef ptr @_ZN5Arena4growEmN17AllocFailStrategy13AllocFailEnumE(ptr noundef nonnull align 8 dereferenceable(48) %15, i64 noundef 8, i32 noundef 0) #8
  %.pre = ptrtoint ptr %26 to i64
  br label %_ZN10HandleArea15allocate_handleEP7oopDesc.exit.i.i

_ZN10HandleArea15allocate_handleEP7oopDesc.exit.i.i: ; preds = %25, %23
  %.pre-phi = phi i64 [ %.pre, %25 ], [ %21, %23 ]
  %.0.i.i.i.i.i = phi ptr [ %26, %25 ], [ %19, %23 ]
  store ptr %11, ptr %.0.i.i.i.i.i, align 8
  br label %_ZN14instanceHandleC2EP6ThreadP15instanceOopDesc.exit

_ZN14instanceHandleC2EP6ThreadP15instanceOopDesc.exit: ; preds = %8, %_ZN10HandleArea15allocate_handleEP7oopDesc.exit.i.i
  %storemerge.i.i = phi i64 [ %.pre-phi, %_ZN10HandleArea15allocate_handleEP7oopDesc.exit.i.i ], [ 0, %8 ]
  store i8 12, ptr %3, align 8
  %27 = getelementptr inbounds i8, ptr %4, i64 120
  store ptr null, ptr %27, align 8
  %28 = getelementptr inbounds i8, ptr %4, i64 8
  %29 = getelementptr inbounds i8, ptr %4, i64 88
  store ptr %28, ptr %29, align 8
  %30 = getelementptr inbounds i8, ptr %4, i64 73
  %31 = getelementptr inbounds i8, ptr %4, i64 96
  store ptr %30, ptr %31, align 8
  %32 = getelementptr inbounds i8, ptr %4, i64 108
  store i32 8, ptr %32, align 4
  %33 = getelementptr inbounds i8, ptr %4, i64 104
  %34 = getelementptr inbounds i8, ptr %4, i64 112
  store i8 0, ptr %34, align 8
  store i8 2, ptr %30, align 1
  store i32 1, ptr %33, align 8
  store i64 %storemerge.i.i, ptr %28, align 8
  %35 = load ptr, ptr getelementptr inbounds (i8, ptr @_ZN6Symbol11_vm_symbolsE, i64 8672), align 8
  %36 = load ptr, ptr getelementptr inbounds (i8, ptr @_ZN6Symbol11_vm_symbolsE, i64 8680), align 8
  call void @_ZN9JavaCalls12call_virtualEP9JavaValueP5KlassP6SymbolS5_P17JavaCallArgumentsP10JavaThread(ptr noundef nonnull %3, ptr noundef %5, ptr noundef %35, ptr noundef %36, ptr noundef nonnull %4, ptr noundef nonnull %1) #8
  %37 = load ptr, ptr %6, align 8
  %.not11 = icmp eq ptr %37, null
  br i1 %.not11, label %38, label %_ZN6HandleC2EP6ThreadP7oopDesc.exit

38:                                               ; preds = %_ZN14instanceHandleC2EP6ThreadP15instanceOopDesc.exit
  %39 = getelementptr inbounds i8, ptr %3, i64 8
  %40 = load ptr, ptr %39, align 8
  %41 = icmp eq ptr %40, null
  br i1 %41, label %_ZN6HandleC2EP6ThreadP7oopDesc.exit, label %42

42:                                               ; preds = %38
  %43 = getelementptr inbounds i8, ptr %1, i64 808
  %44 = load ptr, ptr %43, align 8
  %45 = getelementptr inbounds i8, ptr %44, i64 40
  %46 = load ptr, ptr %45, align 8
  %47 = getelementptr inbounds i8, ptr %44, i64 32
  %48 = load ptr, ptr %47, align 8
  %49 = ptrtoint ptr %46 to i64
  %50 = ptrtoint ptr %48 to i64
  %51 = sub i64 %49, %50
  %.not.i.i.i.i = icmp ult i64 %51, 8
  br i1 %.not.i.i.i.i, label %54, label %52

52:                                               ; preds = %42
  %53 = getelementptr inbounds i8, ptr %48, i64 8
  store ptr %53, ptr %47, align 8
  br label %_ZN10HandleArea15allocate_handleEP7oopDesc.exit.i

54:                                               ; preds = %42
  %55 = call noundef ptr @_ZN5Arena4growEmN17AllocFailStrategy13AllocFailEnumE(ptr noundef nonnull align 8 dereferenceable(48) %44, i64 noundef 8, i32 noundef 0) #8
  br label %_ZN10HandleArea15allocate_handleEP7oopDesc.exit.i

_ZN10HandleArea15allocate_handleEP7oopDesc.exit.i: ; preds = %54, %52
  %.0.i.i.i.i = phi ptr [ %48, %52 ], [ %55, %54 ]
  store ptr %40, ptr %.0.i.i.i.i, align 8
  br label %_ZN6HandleC2EP6ThreadP7oopDesc.exit

_ZN6HandleC2EP6ThreadP7oopDesc.exit:              ; preds = %_ZN10HandleArea15allocate_handleEP7oopDesc.exit.i, %38, %_ZN14instanceHandleC2EP6ThreadP15instanceOopDesc.exit, %2
  %.sroa.010.0 = phi ptr [ null, %2 ], [ null, %_ZN14instanceHandleC2EP6ThreadP15instanceOopDesc.exit ], [ %.0.i.i.i.i, %_ZN10HandleArea15allocate_handleEP7oopDesc.exit.i ], [ null, %38 ]
  ret ptr %.sroa.010.0
}